target datalayout = "e-m:e-p270:32:32-p271:32:32-p272:64:64-i64:64-i128:128-f80:128-n8:16:32:64-S128"
target triple = "x86_64-unknown-linux-gnu"

%"class.icu_75::RuleBasedBreakIterator" = type <{ %"class.icu_75::BreakIterator.base", i8, %struct.UText, ptr, i32, i32, i32, [4 x i8], ptr, ptr, ptr, ptr, i32, [4 x i8], ptr, %"class.icu_75::UCharCharacterIterator", i8, [7 x i8], ptr, i8, [7 x i8] }>
%"class.icu_75::BreakIterator.base" = type <{ %"class.icu_75::UObject", [157 x i8], [157 x i8], [157 x i8] }>
%"class.icu_75::UObject" = type { ptr }
%struct.UText = type { i32, i32, i32, i32, i64, i32, i32, i64, i32, i32, ptr, ptr, ptr, ptr, ptr, ptr, ptr, ptr, i64, i32, i32, i64, i32, i32 }
%"class.icu_75::UCharCharacterIterator" = type { %"class.icu_75::CharacterIterator", ptr }
%"class.icu_75::CharacterIterator" = type { %"class.icu_75::ForwardCharacterIterator", i32, i32, i32, i32 }
%"class.icu_75::ForwardCharacterIterator" = type { %"class.icu_75::UObject" }

; Function Attrs: mustprogress uwtable
define noundef i32 @_ZN6icu_7522RuleBasedBreakIterator9precedingEi(ptr noundef nonnull align 8 dereferenceable(745) %this, i32 noundef %offset) unnamed_addr #1 align 2 {
entry:
  %retval = alloca i32, align 4
  %this.addr = alloca ptr, align 8
  %offset.addr = alloca i32, align 4
  %adjustedOffset = alloca i32, align 4
  %status = alloca i32, align 4
  store ptr %this, ptr %this.addr, align 8
  store i32 %offset, ptr %offset.addr, align 4
  %this1 = load ptr, ptr %this.addr, align 8
  %0 = load i32, ptr %offset.addr, align 4
  %conv = sext i32 %0 to i64
  %fText = getelementptr inbounds %"class.icu_75::RuleBasedBreakIterator", ptr %this1, i32 0, i32 2
  %call = call i64 @utext_nativeLength_75(ptr noundef %fText)
  %cmp = icmp sgt i64 %conv, %call
  br i1 %cmp, label %if.then, label %if.end

if.then:                                          ; preds = %entry
  %vtable = load ptr, ptr %this1, align 8
  %vfn = getelementptr inbounds ptr, ptr %vtable, i64 11
  %1 = load ptr, ptr %vfn, align 8
  %call2 = call noundef i32 %1(ptr noundef nonnull align 8 dereferenceable(745) %this1)
  store i32 %call2, ptr %retval, align 4
  br label %return

if.end:                                           ; preds = %entry
  %fText3 = getelementptr inbounds %"class.icu_75::RuleBasedBreakIterator", ptr %this1, i32 0, i32 2
  %2 = load i32, ptr %offset.addr, align 4
  %conv4 = sext i32 %2 to i64
  call void @utext_setNativeIndex_75(ptr noundef %fText3, i64 noundef %conv4)
  %fText5 = getelementptr inbounds %"class.icu_75::RuleBasedBreakIterator", ptr %this1, i32 0, i32 2
  %call6 = call i64 @utext_getNativeIndex_75(ptr noundef %fText5)
  %conv7 = trunc i64 %call6 to i32
  store i32 %conv7, ptr %adjustedOffset, align 4
  store i32 0, ptr %status, align 4
  %fBreakCache = getelementptr inbounds %"class.icu_75::RuleBasedBreakIterator", ptr %this1, i32 0, i32 8
  %3 = load ptr, ptr %fBreakCache, align 8
  %4 = load i32, ptr %adjustedOffset, align 4
  call void @_ZN6icu_7522RuleBasedBreakIterator10BreakCache9precedingEiR10UErrorCode(ptr noundef nonnull align 8 dereferenceable(832) %3, i32 noundef %4, ptr noundef nonnull align 4 dereferenceable(4) %status)
  %fDone = getelementptr inbounds %"class.icu_75::RuleBasedBreakIterator", ptr %this1, i32 0, i32 16
  %5 = load i8, ptr %fDone, align 8
  %tobool = trunc i8 %5 to i1
  br i1 %tobool, label %cond.true, label %cond.false

cond.true:                                        ; preds = %if.end
  br label %cond.end

cond.false:                                       ; preds = %if.end
  %fPosition = getelementptr inbounds %"class.icu_75::RuleBasedBreakIterator", ptr %this1, i32 0, i32 5
  %6 = load i32, ptr %fPosition, align 4
  br label %cond.end

cond.end:                                         ; preds = %cond.false, %cond.true
  %cond = phi i32 [ -1, %cond.true ], [ %6, %cond.false ]
  store i32 %cond, ptr %retval, align 4
  br label %return

return:                                           ; preds = %cond.end, %if.then
  %7 = load i32, ptr %retval, align 4
  ret i32 %7
}